; Function Attrs: null_pointer_is_valid sspstrong uwtable
define internal fastcc i32 @dissect_query_afp_remove_ext_attr(ptr noundef %0, ptr noundef readonly captures(none) %1, ptr noundef %2) unnamed_addr #1 {
  %4 = load i32, ptr @hf_afp_pad, align 4
  %5 = tail call ptr @proto_tree_add_item(ptr noundef %2, i32 noundef %4, ptr noundef %0, i32 noundef 1, i32 noundef 1, i32 noundef 0)
  %6 = tail call zeroext i16 @tvb_get_ntohs(ptr noundef %0, i32 noundef 2)
  %7 = zext i16 %6 to i32
  store i32 %7, ptr @Vol, align 4
  %8 = load i32, ptr @hf_afp_vol_id, align 4
  %9 = tail call ptr @proto_tree_add_item(ptr noundef %2, i32 noundef %8, ptr noundef %0, i32 noundef 2, i32 noundef 2, i32 noundef 0)
  %10 = tail call i32 @tvb_get_ntohl(ptr noundef %0, i32 noundef 4)
  store i32 %10, ptr @Did, align 4
  %11 = load i32, ptr @hf_afp_did, align 4
  %12 = tail call ptr @proto_tree_add_item(ptr noundef %2, i32 noundef %11, ptr noundef %0, i32 noundef 4, i32 noundef 4, i32 noundef 0)
  %13 = load i32, ptr @hf_afp_extattr_bitmap, align 4
  %14 = load i32, ptr @ett_afp_extattr_bitmap, align 4
  %15 = tail call ptr @proto_tree_add_bitmask(ptr noundef %2, ptr noundef %0, i32 noundef 8, i32 noundef %13, i32 noundef %14, ptr noundef nonnull @decode_attr_bitmap.bitmaps, i32 noundef 0)
  %16 = tail call fastcc i32 @decode_name_label(ptr noundef %2, ptr noundef readonly %1, ptr noundef %0, i32 noundef 10, ptr noundef nonnull @.str.1065, i1 noundef zeroext true)
  %17 = tail call fastcc i32 @decode_attr_name(ptr noundef %2, ptr noundef %1, ptr noundef %0, i32 noundef %16)
  ret i32 %17
}